target datalayout = "e-m:e-p270:32:32-p271:32:32-p272:64:64-i64:64-i128:128-f80:128-n8:16:32:64-S128"
target triple = "x86_64-pc-linux-gnu"

@.str.18 = private unnamed_addr constant [3 x i8] c">=\00", align 1
@.str.26 = private unnamed_addr constant [14 x i8] c"unsigned long\00", align 1
@.str.27 = private unnamed_addr constant [24 x i8] c"[%lu] compared to [%lu]\00", align 1

; Function Attrs: nounwind uwtable
define i32 @test_ulong_ge(ptr noundef %0, i32 noundef %1, ptr noundef %2, ptr noundef %3, i64 noundef %4, i64 noundef %5) #0 {
  %7 = alloca i32, align 4
  %8 = alloca ptr, align 8
  %9 = alloca i32, align 4
  %10 = alloca ptr, align 8
  %11 = alloca ptr, align 8
  %12 = alloca i64, align 8
  %13 = alloca i64, align 8
  store ptr %0, ptr %8, align 8, !tbaa !3
  store i32 %1, ptr %9, align 4, !tbaa !8
  store ptr %2, ptr %10, align 8, !tbaa !3
  store ptr %3, ptr %11, align 8, !tbaa !3
  store i64 %4, ptr %12, align 8, !tbaa !13
  store i64 %5, ptr %13, align 8, !tbaa !13
  %14 = load i64, ptr %12, align 8, !tbaa !13
  %15 = load i64, ptr %13, align 8, !tbaa !13
  %16 = icmp uge i64 %14, %15
  br i1 %16, label %17, label %18

17:                                               ; preds = %6
  store i32 1, ptr %7, align 4
  br label %25

18:                                               ; preds = %6
  %19 = load ptr, ptr %8, align 8, !tbaa !3
  %20 = load i32, ptr %9, align 4, !tbaa !8
  %21 = load ptr, ptr %10, align 8, !tbaa !3
  %22 = load ptr, ptr %11, align 8, !tbaa !3
  %23 = load i64, ptr %12, align 8, !tbaa !13
  %24 = load i64, ptr %13, align 8, !tbaa !13
  call void (ptr, ptr, i32, ptr, ptr, ptr, ptr, ptr, ...) @test_fail_message(ptr noundef null, ptr noundef %19, i32 noundef %20, ptr noundef @.str.26, ptr noundef %21, ptr noundef %22, ptr noundef @.str.18, ptr noundef @.str.27, i64 noundef %23, i64 noundef %24)
  store i32 0, ptr %7, align 4
  br label %25

25:                                               ; preds = %18, %17
  %26 = load i32, ptr %7, align 4
  ret i32 %26
}